; Function Attrs: mustprogress nofree norecurse nosync nounwind willreturn memory(read, inaccessiblemem: none) uwtable
define noundef zeroext i1 @_ZNK2cv4UMat5emptyEv(ptr noundef nonnull readonly align 8 captures(none) dereferenceable(80) %0) local_unnamed_addr #9 align 2 {
  %2 = getelementptr inbounds nuw i8, ptr %0, i64 32
  %3 = load ptr, ptr %2, align 8, !tbaa !57
  %4 = icmp eq ptr %3, null
  br i1 %4, label %26, label %5

5:                                                ; preds = %1
  %6 = getelementptr inbounds nuw i8, ptr %0, i64 4
  %7 = load i32, ptr %6, align 4, !tbaa !58
  %8 = icmp slt i32 %7, 3
  br i1 %8, label %11, label %.preheader.i

.preheader.i:                                     ; preds = %5
  %9 = getelementptr inbounds nuw i8, ptr %0, i64 48
  %10 = load ptr, ptr %9, align 8, !tbaa !51
  %wide.trip.count.i = zext nneg i32 %7 to i64
  br label %19

11:                                               ; preds = %5
  %12 = getelementptr inbounds nuw i8, ptr %0, i64 8
  %13 = load i32, ptr %12, align 8, !tbaa !64
  %14 = sext i32 %13 to i64
  %15 = getelementptr inbounds nuw i8, ptr %0, i64 12
  %16 = load i32, ptr %15, align 4, !tbaa !65
  %17 = sext i32 %16 to i64
  %18 = mul nsw i64 %17, %14
  br label %_ZNK2cv4UMat5totalEv.exit

19:                                               ; preds = %19, %.preheader.i
  %indvars.iv.i = phi i64 [ 0, %.preheader.i ], [ %indvars.iv.next.i, %19 ]
  %.068.i = phi i64 [ 1, %.preheader.i ], [ %23, %19 ]
  %20 = getelementptr inbounds nuw i32, ptr %10, i64 %indvars.iv.i
  %21 = load i32, ptr %20, align 4, !tbaa !28
  %22 = sext i32 %21 to i64
  %23 = mul i64 %.068.i, %22
  %indvars.iv.next.i = add nuw nsw i64 %indvars.iv.i, 1
  %exitcond.not.i = icmp eq i64 %indvars.iv.next.i, %wide.trip.count.i
  br i1 %exitcond.not.i, label %_ZNK2cv4UMat5totalEv.exit, label %19, !llvm.loop !66

_ZNK2cv4UMat5totalEv.exit:                        ; preds = %19, %11
  %.07.i = phi i64 [ %18, %11 ], [ %23, %19 ]
  %24 = icmp eq i64 %.07.i, 0
  %25 = icmp eq i32 %7, 0
  %spec.select = or i1 %25, %24
  br label %26

26:                                               ; preds = %_ZNK2cv4UMat5totalEv.exit, %1
  %27 = phi i1 [ true, %1 ], [ %spec.select, %_ZNK2cv4UMat5totalEv.exit ]
  ret i1 %27
}